Certificate:
    Data:
        Version: 3 (0x2)
        Serial Number:
            1f:08:0c:59:1a:50:0b:db:c5:c6:c3:5c:64:8a:96:5d
    Signature Algorithm: sha256WithRSAEncryption
        Issuer: CN=ChangeMe
        Validity
            Not Before: Oct 31 14:54:15 2018 GMT
            Not After : Oct 28 14:54:15 2028 GMT
        Subject: CN=metricbeat1
        Subject Public Key Info:
            Public Key Algorithm: rsaEncryption
                Public-Key: (2048 bit)
                Modulus:
                    00:a7:61:87:61:23:2b:92:22:17:ab:7f:8d:96:6a:
                    85:ed:9e:52:d9:f3:84:f4:31:43:37:24:b2:02:72:
                    f7:a9:98:de:73:04:64:cd:dd:ee:27:c3:41:e0:ad:
                    6b:65:fb:db:34:97:81:74:39:52:94:fe:ad:ce:e7:
                    b2:26:5e:7e:b6:44:ea:13:b0:1e:a1:dd:da:94:fa:
                    89:35:35:87:eb:39:7b:0e:36:22:f8:5f:e0:cd:3c:
                    0d:7d:e3:51:44:15:cf:cc:bf:58:07:2b:b6:a1:d7:
                    c1:ea:da:14:69:a5:a2:a3:56:39:a5:34:e6:d7:fd:
                    45:a3:cc:d6:74:35:35:d7:a0:eb:99:e2:d0:22:ce:
                    34:3a:cb:c9:ad:79:ca:51:ee:10:74:43:46:b7:fe:
                    34:c8:a7:44:18:01:11:56:ae:bd:76:c3:f5:b9:a2:
                    b8:13:d8:7c:73:e7:c9:02:04:f6:14:0f:b2:60:2f:
                    53:78:1f:79:01:be:eb:dd:1d:f7:73:a4:b6:48:0e:
                    7c:a3:23:8f:e5:de:e2:55:aa:50:18:b1:ad:83:93:
                    f8:7d:76:39:e7:b3:e6:7e:34:4c:9e:76:37:98:95:
                    da:d2:be:66:37:41:86:b8:10:55:41:a3:f9:c5:2a:
                    13:3e:d0:9d:0a:bc:98:6c:10:c0:6c:22:af:34:d1:
                    63:dd
                Exponent: 65537 (0x10001)
        X509v3 extensions:
            X509v3 Basic Constraints: 
                CA:FALSE
            X509v3 Subject Key Identifier: 
                9F:5D:EE:12:07:79:03:FE:9B:54:E4:D2:55:74:42:64:64:CC:F1:C5
            X509v3 Authority Key Identifier: 
                keyid:B9:CB:45:24:B0:22:C2:57:17:ED:F8:A6:EB:F0:00:9F:31:21:B9:91
                DirName:/CN=ChangeMe
                serial:91:11:B5:35:26:44:3A:7A

            X509v3 Extended Key Usage: 
                TLS Web Client Authentication
            X509v3 Key Usage: 
                Digital Signature
    Signature Algorithm: sha256WithRSAEncryption
         71:48:e3:bf:f4:06:b2:c1:2a:ff:41:b5:64:d9:d6:a8:3c:51:
         a7:4b:74:15:93:06:80:00:ad:ee:60:08:64:4a:2a:f0:fe:43:
         17:ed:cf:0c:b0:b4:6d:78:93:19:e5:6d:95:a3:0b:8f:41:ef:
         cc:98:cb:35:79:cb:50:7f:91:77:d3:e2:be:8a:3f:44:f6:b4:
         b8:cb:07:ed:94:4c:16:4d:8f:fb:04:0d:65:20:7e:4d:93:0c:
         a8:8e:33:7e:a4:fb:01:2c:d8:76:73:bf:95:ee:89:d6:94:66:
         38:74:c9:d3:4d:f4:b2:9a:72:ab:61:15:18:9b:88:ad:dc:3c:
         3f:da:b9:07:e2:22:f7:86:58:40:4d:58:08:7a:5c:e6:99:90:
         50:a7:83:ba:c0:4d:3d:41:6e:d4:59:ce:3e:93:6b:77:1e:48:
         5a:59:61:4a:c1:cc:63:44:8c:7a:26:d6:26:e0:ae:8d:f0:ad:
         7e:27:a8:58:db:70:d5:2b:80:2f:f9:ce:8f:47:fb:67:c2:86:
         cb:7f:e6:75:f3:73:89:29:45:57:6a:39:dd:fb:69:64:1c:00:
         cc:f0:2c:17:31:37:7f:af:93:e8:a7:9b:66:3f:19:51:51:5b:
         c9:32:e3:4c:fb:0d:47:0a:54:a1:a7:e4:61:46:a2:36:87:c2:
         d1:f8:a4:d4
-----BEGIN CERTIFICATE-----
MIIDSDCCAjCgAwIBAgIQHwgMWRpQC9vFxsNcZIqWXTANBgkqhkiG9w0BAQsFADAT
MREwDwYDVQQDDAhDaGFuZ2VNZTAeFw0xODEwMzExNDU0MTVaFw0yODEwMjgxNDU0
MTVaMBYxFDASBgNVBAMMC21ldHJpY2JlYXQxMIIBIjANBgkqhkiG9w0BAQEFAAOC
AQ8AMIIBCgKCAQEAp2GHYSMrkiIXq3+NlmqF7Z5S2fOE9DFDNySyAnL3qZjecwRk
zd3uJ8NB4K1rZfvbNJeBdDlSlP6tzueyJl5+tkTqE7Aeod3alPqJNTWH6zl7DjYi
+F/gzTwNfeNRRBXPzL9YByu2odfB6toUaaWio1Y5pTTm1/1Fo8zWdDU116DrmeLQ
Is40OsvJrXnKUe4QdENGt/40yKdEGAERVq69dsP1uaK4E9h8c+fJAgT2FA+yYC9T
eB95Ab7r3R33c6S2SA58oyOP5d7iVapQGLGtg5P4fXY557PmfjRMnnY3mJXa0r5m
N0GGuBBVQaP5xSoTPtCdCryYbBDAbCKvNNFj3QIDAQABo4GUMIGRMAkGA1UdEwQC
MAAwHQYDVR0OBBYEFJ9d7hIHeQP+m1Tk0lV0QmRkzPHFMEMGA1UdIwQ8MDqAFLnL
RSSwIsJXF+34puvwAJ8xIbmRoRekFTATMREwDwYDVQQDDAhDaGFuZ2VNZYIJAJER
tTUmRDp6MBMGA1UdJQQMMAoGCCsGAQUFBwMCMAsGA1UdDwQEAwIHgDANBgkqhkiG
9w0BAQsFAAOCAQEAcUjjv/QGssEq/0G1ZNnWqDxRp0t0FZMGgACt7mAIZEoq8P5D
F+3PDLC0bXiTGeVtlaMLj0HvzJjLNXnLUH+Rd9Pivoo/RPa0uMsH7ZRMFk2P+wQN
ZSB+TZMMqI4zfqT7ASzYdnO/le6J1pRmOHTJ0030sppyq2EVGJuIrdw8P9q5B+Ii
94ZYQE1YCHpc5pmQUKeDusBNPUFu1FnOPpNrdx5IWllhSsHMY0SMeibWJuCujfCt
fieoWNtw1SuAL/nOj0f7Z8KGy3/mdfNziSlFV2o53ftpZBwAzPAsFzE3f6+T6Keb
Zj8ZUVFbyTLjTPsNRwpUoafkYUaiNofC0fik1A==
-----END CERTIFICATE-----
