Certificate:
    Data:
        Version: 3 (0x2)
        Serial Number:
            07:3c:e4:4b:62:10:f1:fe:8a:43:83:c5:a9:3d:48:01
    Signature Algorithm: sha256WithRSAEncryption
        Issuer: CN=ChangeMe
        Validity
            Not Before: Oct 31 14:03:49 2018 GMT
            Not After : Oct 28 14:03:49 2028 GMT
        Subject: CN=skypath.productionlogs.com
        Subject Public Key Info:
            Public Key Algorithm: rsaEncryption
                Public-Key: (2048 bit)
                Modulus:
                    00:ac:85:ce:8a:6c:86:b9:7b:14:96:f7:f7:37:95:
                    3f:92:36:60:aa:e5:29:70:49:e1:af:d8:fd:a6:9f:
                    0b:3f:ff:ea:0c:e6:f9:63:5c:44:4e:6b:2d:9a:58:
                    21:d6:9b:c7:31:d4:57:e5:c6:f9:61:61:36:f6:ed:
                    0c:33:68:e8:22:23:b9:15:8a:f1:75:6e:9b:a2:43:
                    ec:66:d5:6c:95:75:71:c9:49:c5:80:c1:bb:e1:06:
                    3c:8c:70:78:42:99:51:27:59:57:02:06:f3:3c:e1:
                    e8:f2:8c:33:49:7d:07:f4:07:5e:65:f1:01:e7:13:
                    0e:f6:fa:67:a1:56:aa:19:a7:c1:1b:9c:9b:6c:16:
                    21:c8:43:21:6a:f2:52:a4:c6:13:70:68:f2:44:5f:
                    b6:77:73:a8:13:66:5e:ad:3a:e0:14:db:85:85:de:
                    bf:65:8c:2a:12:9d:20:48:3b:b4:be:f9:ed:f6:42:
                    13:2f:66:24:69:b1:27:fb:10:66:b2:87:97:d8:b6:
                    7f:cb:71:a0:d4:33:a3:b7:21:cc:3b:27:21:cf:f6:
                    5a:29:12:dc:b0:8e:4b:41:d2:89:65:ba:2e:b5:4c:
                    74:dd:b4:5b:11:f5:4a:69:0e:84:24:ef:55:8e:06:
                    b7:0c:dc:ef:d4:3a:f4:df:49:f4:e8:04:0d:af:5c:
                    60:53
                Exponent: 65537 (0x10001)
        X509v3 extensions:
            X509v3 Basic Constraints: 
                CA:FALSE
            X509v3 Subject Key Identifier: 
                66:A7:4F:B4:B2:E5:25:1B:B2:19:D7:90:3F:E0:97:8B:4F:84:CB:9B
            X509v3 Authority Key Identifier: 
                keyid:B9:CB:45:24:B0:22:C2:57:17:ED:F8:A6:EB:F0:00:9F:31:21:B9:91
                DirName:/CN=ChangeMe
                serial:91:11:B5:35:26:44:3A:7A

            X509v3 Extended Key Usage: 
                TLS Web Server Authentication
            X509v3 Key Usage: 
                Digital Signature, Key Encipherment
    Signature Algorithm: sha256WithRSAEncryption
         89:c0:d1:d4:b7:8b:63:73:8f:22:03:75:c0:eb:6c:eb:86:16:
         7d:88:12:3e:70:3b:dc:fd:f7:a6:e3:0f:2c:fe:3f:9a:80:bf:
         e3:5f:12:0f:dd:69:61:3e:bc:e9:92:e1:3a:74:bc:ea:91:0b:
         8d:62:d9:fb:b6:a9:5c:c9:29:03:4c:e2:a9:f2:c7:e8:0c:d4:
         03:71:76:d6:0d:e3:65:61:2a:ba:9a:a2:fe:55:f1:1e:f7:66:
         56:dc:b2:0c:3b:03:ab:68:2e:16:e5:6a:97:fc:22:d9:55:05:
         5e:de:2e:9f:23:fa:40:75:3c:9f:44:c5:dd:70:a2:2a:7a:7f:
         22:5d:3d:ce:a5:5a:11:fa:a9:e1:45:a6:11:15:a7:1a:ff:a1:
         cc:37:bc:e9:04:45:44:56:dd:a8:2c:6b:a6:b4:49:51:8b:9e:
         b6:c8:80:bd:58:37:2c:6f:d4:b2:12:4a:12:89:de:f7:2f:55:
         90:4c:a5:30:27:6b:bc:ea:24:e1:e5:a8:ec:01:68:fa:9f:0a:
         96:67:36:6a:ca:d3:fc:69:ee:59:e2:a5:a2:1f:aa:9c:e1:55:
         05:d2:9f:15:12:09:22:91:2c:64:66:30:b4:c8:98:4a:d2:f5:
         9e:8a:6f:c3:31:d5:68:66:e9:96:97:a1:96:b7:fa:b6:84:f8:
         78:a5:65:56
-----BEGIN CERTIFICATE-----
MIIDVzCCAj+gAwIBAgIQBzzkS2IQ8f6KQ4PFqT1IATANBgkqhkiG9w0BAQsFADAT
MREwDwYDVQQDDAhDaGFuZ2VNZTAeFw0xODEwMzExNDAzNDlaFw0yODEwMjgxNDAz
NDlaMCUxIzAhBgNVBAMMGnNreXBhdGgucHJvZHVjdGlvbmxvZ3MuY29tMIIBIjAN
BgkqhkiG9w0BAQEFAAOCAQ8AMIIBCgKCAQEArIXOimyGuXsUlvf3N5U/kjZgquUp
cEnhr9j9pp8LP//qDOb5Y1xETmstmlgh1pvHMdRX5cb5YWE29u0MM2joIiO5FYrx
dW6bokPsZtVslXVxyUnFgMG74QY8jHB4QplRJ1lXAgbzPOHo8owzSX0H9AdeZfEB
5xMO9vpnoVaqGafBG5ybbBYhyEMhavJSpMYTcGjyRF+2d3OoE2ZerTrgFNuFhd6/
ZYwqEp0gSDu0vvnt9kITL2YkabEn+xBmsoeX2LZ/y3Gg1DOjtyHMOychz/ZaKRLc
sI5LQdKJZboutUx03bRbEfVKaQ6EJO9Vjga3DNzv1Dr030n06AQNr1xgUwIDAQAB
o4GUMIGRMAkGA1UdEwQCMAAwHQYDVR0OBBYEFGanT7Sy5SUbshnXkD/gl4tPhMub
MEMGA1UdIwQ8MDqAFLnLRSSwIsJXF+34puvwAJ8xIbmRoRekFTATMREwDwYDVQQD
DAhDaGFuZ2VNZYIJAJERtTUmRDp6MBMGA1UdJQQMMAoGCCsGAQUFBwMBMAsGA1Ud
DwQEAwIFoDANBgkqhkiG9w0BAQsFAAOCAQEAicDR1LeLY3OPIgN1wOts64YWfYgS
PnA73P33puMPLP4/moC/418SD91pYT686ZLhOnS86pELjWLZ+7apXMkpA0ziqfLH
6AzUA3F21g3jZWEqupqi/lXxHvdmVtyyDDsDq2guFuVql/wi2VUFXt4unyP6QHU8
n0TF3XCiKnp/Il09zqVaEfqp4UWmERWnGv+hzDe86QRFRFbdqCxrprRJUYuetsiA
vVg3LG/UshJKEone9y9VkEylMCdrvOok4eWo7AFo+p8Klmc2asrT/GnuWeKloh+q
nOFVBdKfFRIJIpEsZGYwtMiYStL1nopvwzHVaGbplpehlrf6toT4eKVlVg==
-----END CERTIFICATE-----
